; ModuleID = '44/1052.c'
source_filename = "44/1052.c"
target datalayout = "e-m:e-p270:32:32-p271:32:32-p272:64:64-i64:64-f80:128-n8:16:32:64-S128"
target triple = "x86_64-pc-linux-gnu"

@.str = private unnamed_addr constant [3 x i8] c"%d\00", align 1
@.str.1 = private unnamed_addr constant [4 x i8] c"%d\0A\00", align 1

; Function Attrs: noinline nounwind uwtable
define dso_local i32 @reserve(i32 %0) #0 {
  %2 = alloca i32, align 4
  %3 = alloca i32, align 4
  %4 = alloca i32, align 4
  %5 = alloca i32, align 4
  store i32 %0, i32* %3, align 4
  store i32 0, i32* %5, align 4
  %6 = load i32, i32* %3, align 4
  %7 = icmp eq i32 %6, 0
  br i1 %7, label %8, label %9

8:                                                ; preds = %1
  store i32 0, i32* %2, align 4
  br label %26

9:                                                ; preds = %1
  br label %10

10:                                               ; preds = %13, %9
  %11 = load i32, i32* %3, align 4
  %12 = icmp ne i32 %11, 0
  br i1 %12, label %13, label %24

13:                                               ; preds = %10
  %14 = load i32, i32* %3, align 4
  %15 = srem i32 %14, 10
  store i32 %15, i32* %4, align 4
  %16 = load i32, i32* %5, align 4
  %17 = mul nsw i32 %16, 10
  %18 = load i32, i32* %4, align 4
  %19 = add nsw i32 %17, %18
  store i32 %19, i32* %5, align 4
  %20 = load i32, i32* %3, align 4
  %21 = load i32, i32* %4, align 4
  %22 = sub nsw i32 %20, %21
  %23 = sdiv i32 %22, 10
  store i32 %23, i32* %3, align 4
  br label %10

24:                                               ; preds = %10
  %25 = load i32, i32* %5, align 4
  store i32 %25, i32* %2, align 4
  br label %26

26:                                               ; preds = %24, %8
  %27 = load i32, i32* %2, align 4
  ret i32 %27
}

; Function Attrs: noinline nounwind uwtable
define dso_local i32 @main() #0 {
  %1 = alloca i32, align 4
  %2 = alloca i32, align 4
  %3 = alloca i32, align 4
  store i32 0, i32* %1, align 4
  store i32 1, i32* %3, align 4
  br label %4

4:                                                ; preds = %12, %0
  %5 = load i32, i32* %3, align 4
  %6 = icmp sle i32 %5, 6
  br i1 %6, label %7, label %15

7:                                                ; preds = %4
  %8 = call i32 (i8*, ...) @__isoc99_scanf(i8* getelementptr inbounds ([3 x i8], [3 x i8]* @.str, i64 0, i64 0), i32* %2)
  %9 = load i32, i32* %2, align 4
  %10 = call i32 @reserve(i32 %9)
  %11 = call i32 (i8*, ...) @printf(i8* getelementptr inbounds ([4 x i8], [4 x i8]* @.str.1, i64 0, i64 0), i32 %10)
  br label %12

12:                                               ; preds = %7
  %13 = load i32, i32* %3, align 4
  %14 = add nsw i32 %13, 1
  store i32 %14, i32* %3, align 4
  br label %4

15:                                               ; preds = %4
  %16 = load i32, i32* %1, align 4
  ret i32 %16
}

declare dso_local i32 @__isoc99_scanf(i8*, ...) #1

declare dso_local i32 @printf(i8*, ...) #1


!llvm.module.flags = !{!0}
!llvm.ident = !{!1}

!0 = !{i32 1, !"wchar_size", i32 4}
!1 = !{!"clang version 10.0.0-4ubuntu1 "}
